(lp1
(lp2
(lp3
(lp4
I407
aI408
aI436
aI444
aI466
aI468
aI475
aI479
aI511
aI547
aI555
aI561
aI565
aI569
aI573
aI575
aI581
aI586
aI595
aI603
aI609
aI612
aI621
aI627
aI654
aI656
aI660
aI661
aI665
aI670
aI671
aI675
aI690
aI705
aI717
aI734
aI751
aI757
aI779
aI791
aI802
aI803
aI817
aI820
aI829
aI847
aI856
aI864
aI866
aI867
aI870
aI874
aI919
aI920
aa(lp5
I417
aI425
aI437
aI442
aI449
aI458
aI460
aI483
aI497
aI500
aI517
aI525
aI538
aI557
aI562
aI640
aI645
aI646
aI649
aI663
aI668
aI672
aI682
aI698
aI701
aI716
aI718
aI755
aI821
aI825
aI832
aI835
aI839
aI853
aI858
aI863
aI873
aI884
aI888
aI900
aI913
aI915
aI958
aI970
aI972
aI974
aI975
aI976
aI977
aI978
aI979
aI980
aI984
aa(lp6
I147
aI148
aI403
aI404
aI405
aI484
aI510
aI536
aI540
aI554
aI625
aI628
aI657
aI694
aI724
aI744
aI780
aI814
aI833
aI871
aI895
aI908
aI914
aaa(lp7
(lp8
I70
aI72
aI73
aI74
aI75
aI76
aI77
aI300
aI301
aI302
aI303
aI304
aI305
aI307
aI308
aI309
aI310
aI311
aI312
aI313
aI315
aI316
aI317
aI318
aI319
aI320
aI321
aI322
aI323
aI324
aI325
aI326
aI815
aI946
aI985
aa(lp9
I25
aI26
aI27
aI28
aI30
aI31
aI32
aI38
aI39
aI40
aI41
aI42
aI43
aI44
aI45
aI46
aI47
aI48
aI49
aI50
aI52
aI53
aI54
aI55
aI56
aI57
aI58
aI59
aI60
aI61
aI62
aI63
aI64
aI65
aI66
aI67
aI68
aa(lp10
I0
aI1
aI2
aI3
aI4
aI5
aI6
aI29
aI33
aI34
aI35
aI36
aI69
aI107
aI108
aI109
aI110
aI113
aI114
aI115
aI116
aI117
aI119
aI120
aI121
aI123
aI125
aI126
aI145
aI149
aI327
aI328
aI329
aI389
aI390
aI391
aI392
aI393
aI394
aI395
aI396
aI397
aI801
aI973
aI983
aI991
aI993
aI994
aI995
aI997
aa(lp11
I7
aI9
aI21
aI22
aI23
aI84
aI93
aI96
aI97
aI98
aI99
aI100
aI127
aI128
aI129
aI130
aI131
aI132
aI133
aI134
aI135
aI136
aI137
aI138
aI139
aI140
aI141
aI142
aI143
aI144
aI146
aa(lp12
I8
aI10
aI11
aI12
aI13
aI14
aI15
aI16
aI17
aI18
aI19
aI20
aI24
aI80
aI81
aI82
aI83
aI85
aI86
aI90
aI91
aI92
aI94
aI95
aaa(lp13
(lp14
I118
aI122
aI467
aI521
aI582
aI607
aI659
aI762
aI809
aI909
aI922
aI923
aI924
aI925
aI926
aI927
aI928
aI930
aI931
aI932
aI933
aI934
aI935
aI936
aI937
aI938
aI939
aI940
aI941
aI942
aI943
aI944
aI945
aI947
aI948
aI949
aI950
aI951
aI952
aI953
aI954
aI955
aI956
aI957
aI959
aI960
aI961
aI962
aI963
aI964
aI965
aI967
aI969
aI986
aI987
aI989
aI992
aI996
aI998
aa(lp15
I409
aI481
aI482
aI485
aI508
aI527
aI530
aI531
aI590
aI592
aI605
aI613
aI620
aI632
aI635
aI662
aI664
aI673
aI681
aI685
aI688
aI713
aI732
aI742
aI754
aI759
aI761
aI782
aI798
aI810
aI848
aI851
aI878
aI916
aa(lp16
I283
aI406
aI431
aI453
aI454
aI492
aI493
aI495
aI516
aI520
aI526
aI532
aI548
aI553
aI556
aI564
aI579
aI598
aI619
aI624
aI648
aI651
aI669
aI687
aI706
aI729
aI741
aI750
aI789
aI799
aI800
aI831
aI846
aI854
aI857
aI881
aI894
aI904
aI905
aI917
aa(lp17
I37
aI51
aI71
aI78
aI79
aI87
aI103
aI111
aI112
aI124
aI150
aI306
aI314
aI333
aI335
aI338
aI356
aI358
aI359
aI398
aI410
aI412
aI415
aI416
aI418
aI419
aI421
aI422
aI423
aI424
aI426
aI427
aI428
aI429
aI430
aI438
aI440
aI441
aI446
aI447
aI448
aI450
aI451
aI455
aI456
aI462
aI463
aI464
aI469
aI470
aI471
aI472
aI473
aI477
aI478
aI480
aI487
aI488
aI489
aI491
aI494
aI498
aI499
aI502
aI503
aI504
aI505
aI506
aI507
aI509
aI512
aI519
aI522
aI528
aI534
aI535
aI539
aI542
aI543
aI544
aI545
aI549
aI550
aI551
aI559
aI560
aI563
aI567
aI570
aI571
aI572
aI574
aI576
aI580
aI583
aI584
aI585
aI587
aI588
aI589
aI596
aI599
aI600
aI604
aI606
aI611
aI616
aI617
aI618
aI622
aI623
aI626
aI629
aI631
aI633
aI634
aI637
aI644
aI647
aI650
aI653
aI666
aI674
aI676
aI677
aI680
aI684
aI686
aI691
aI692
aI693
aI695
aI696
aI700
aI703
aI704
aI707
aI708
aI709
aI710
aI711
aI712
aI714
aI719
aI720
aI722
aI725
aI726
aI727
aI730
aI731
aI733
aI736
aI737
aI738
aI739
aI740
aI743
aI745
aI746
aI747
aI749
aI752
aI753
aI756
aI758
aI760
aI766
aI767
aI768
aI769
aI771
aI772
aI773
aI778
aI781
aI783
aI784
aI785
aI786
aI790
aI792
aI795
aI804
aI807
aI811
aI812
aI813
aI816
aI818
aI819
aI823
aI826
aI827
aI828
aI830
aI838
aI840
aI844
aI845
aI849
aI852
aI855
aI859
aI860
aI861
aI862
aI868
aI872
aI877
aI882
aI883
aI886
aI891
aI892
aI893
aI896
aI897
aI898
aI899
aI901
aI902
aI907
aI910
aI912
aI918
aI921
aI966
aI968
aI971
aI988
aI990
aa(lp18
I88
aI89
aI151
aI195
aI223
aI245
aI254
aI263
aI264
aI284
aI285
aI332
aI411
aI414
aI433
aI434
aI435
aI443
aI445
aI452
aI457
aI459
aI474
aI476
aI496
aI514
aI515
aI518
aI523
aI529
aI533
aI552
aI568
aI578
aI591
aI601
aI602
aI608
aI610
aI614
aI615
aI630
aI636
aI638
aI639
aI643
aI655
aI658
aI678
aI679
aI697
aI702
aI721
aI723
aI728
aI735
aI748
aI765
aI770
aI774
aI775
aI788
aI793
aI794
aI796
aI797
aI805
aI806
aI808
aI824
aI836
aI837
aI841
aI842
aI843
aI850
aI865
aI876
aI879
aI880
aI885
aI890
aI903
aI911
aI929
aI982
aI999
aa(lp19
I160
aI169
aI399
aI400
aI401
aI402
aI413
aI420
aI432
aI439
aI461
aI465
aI486
aI490
aI501
aI513
aI524
aI541
aI546
aI558
aI566
aI577
aI593
aI594
aI597
aI641
aI642
aI652
aI667
aI683
aI689
aI699
aI715
aI763
aI764
aI776
aI777
aI787
aI822
aI834
aI869
aI875
aI887
aI889
aI906
aI981
aaaa(lp20
(lp21
(lp22
I158
aI159
aI161
aI162
aI163
aI164
aI165
aI166
aI167
aI168
aI171
aI172
aI173
aI176
aI178
aI179
aI180
aI208
aI209
aI210
aI211
aI213
aI225
aI227
aI234
aI236
aI237
aI238
aI240
aI241
aI242
aI243
aI246
aI251
aI253
aI339
aa(lp23
I153
aI155
aI170
aI175
aI177
aI181
aI182
aI183
aI184
aI185
aI186
aI187
aI188
aI189
aI190
aI191
aI192
aI193
aI194
aI196
aI197
aI198
aI199
aI201
aI202
aI203
aI204
aI226
aI228
aI229
aI233
aI252
aI262
aI265
aI266
aI267
aI268
aa(lp24
I152
aI154
aI156
aI157
aI200
aI205
aI206
aI207
aI212
aI214
aI215
aI216
aI217
aI218
aI219
aI220
aI221
aI222
aI224
aI230
aI231
aI232
aI239
aI244
aI247
aI255
aI256
aI257
aI258
aI259
aI260
aI261
aaa(lp25
(lp26
I105
aI364
aI365
aI366
aI367
aI368
aI369
aI370
aI371
aI372
aI373
aI374
aI375
aI376
aI377
aI378
aI379
aI380
aI381
aI382
aI383
aI384
aI387
aI388
aa(lp27
I174
aI235
aI248
aI249
aI250
aI269
aI270
aI271
aI272
aI273
aI274
aI275
aI277
aI278
aI279
aI280
aI537
aa(lp28
I101
aI102
aI104
aI106
aI276
aI281
aI282
aI286
aI287
aI288
aI289
aI290
aI291
aI292
aI293
aI294
aI295
aI296
aI297
aI298
aI299
aI330
aI331
aI334
aI336
aI337
aI340
aI341
aI342
aI343
aI344
aI345
aI346
aI347
aI348
aI349
aI350
aI351
aI352
aI353
aI354
aI355
aI357
aI360
aI361
aI362
aI363
aI385
aI386
aaaa.